Sjasm Z80 Assembler v0.42c - www.xl2s.tk             [2020.07.10 - 05:55:14]

src/rutinas.asm
Errors: 0

       1   00:0000                              output "rutinas.bin"
       2   00:C350                      
       3   00:C350  FE                      db   #fe               ; ID archivo binario, siempre hay que poner el mismo 0FEh
       4   00:C351  50 C3                   dw   INICIO            ; dirección de inicio
       5   00:C353  E0 C8                   dw   FINAL - 1         ; dirección final
       6   00:C355  50 C3                   dw   INICIO             ; dircción del programa de ejecución (para cuando pongas r en bload"nombre_programa", r)
       7   00:C357                      
       8   00:C357                          org 50000 ; o #f230, org se utiliza para decirle al z80 en que posición de memoria RAM empieza nuestro programa en ensamblador
       9   00:C350                      
      10   00:C350  (00:005F)           CHGMOD equ #005F   ; Cambia el modo de screen pero previamente necesita que se le asigne el modo en el registro a
      11   00:C350  (00:005C)           LDIRVM equ #005C   ;Tansfiere bloques de la RAM a la VRAM, es la más importante, necesita previamente asignar valor al registro bc con la longitud, dc con la dirección de inicio de la VRAM y hl con la dirección de inicio de la RAM:
      12   00:C350  (00:00D5)           GTSTCK equ #00D5   ;si le pasas al registro a un 0 detectará los cursores,un 1 para el joystick 1 y 2 para el joystick 2
      13   00:C350                                         ;devuelve en a 1 arriba, 2 diagonal arriba derecha,3 derecha, asi hasta 7
      14   00:C350                      
      15   00:C350                      INICIO:
      16   00:C350  CD 57 C3                call volcar_sprites_de_disco_a_vram
      17   00:C353  CD 64 C3                call volcar_colores_sprites_de_disco_a_vram
      18   00:C356  C9                      ret
      19   00:C357                      
      20   00:C357                      
      21   00:C357                      
      22   00:C357                      volcar_sprites_de_disco_a_vram:
      23   00:C357  21 71 C3                ld hl, sprites ; la rutina LDIRVM necesita haber cargado previamente la dirección de inicio de la RAM, para saber porqué he puesto 0000 fíjate este dibujo https://sites.google.com/site/multivac7/files-images/TMS9918_VRAMmap_G2_300dpi.png ,así es como está formado el VDP en screen 2
      24   00:C35A  11 00 78                ld de, #7800 ; la rutina necesita haber cargado previamente con de la dirección de inicio de la VRAM          
      25   00:C35D  01 A0 03                ld bc, 32*29; son 383 bytes a copiar
      26   00:C360  CD 5C 00                call  LDIRVM ; Mira arriba, pone la explicación
      27   00:C363  C9                      ret
      28   00:C364                      volcar_colores_sprites_de_disco_a_vram:
      29   00:C364  21 11 C7                ld hl, color_sprites ; la rutina LDIRVM necesita haber cargado previamente la dirección de inicio de la RAM, para saber porqué he puesto 0000 fíjate este dibujo https://sites.google.com/site/multivac7/files-images/TMS9918_VRAMmap_G2_300dpi.png ,así es como está formado el VDP en screen 2
      30   00:C367  11 00 74                ld de, #7400 ; la rutina necesita haber cargado previamente con de la dirección de inicio de la VRAM          
      31   00:C36A  01 D0 01                ld bc, 16*29; son 1024 bytes a copiar
      32   00:C36D  CD 5C 00                call  LDIRVM ; Mira arriba, pone la explicación
      33   00:C370  C9                      ret
      34   00:C371                       
      35   00:C371                      
      36   00:C371                      
      37   00:C371                      sprites:
      38   00:C371                          ;incbin "./src/SPR.BIN"
      39   00:C371                           ; 0-vacío
      40   00:C371                          db #00,#00,#00,#00,#00,#00,#00,#00
      40   00:C371  00 00 00 00 00 00 00 00 
      41   00:C379                          db #00,#00,#00,#00,#00,#00,#00,#00
      41   00:C379  00 00 00 00 00 00 00 00 
      42   00:C381                          db #00,#00,#00,#00,#00,#00,#00,#00
      42   00:C381  00 00 00 00 00 00 00 00 
      43   00:C389                          db #00,#00,#00,#00,#00,#00,#00,#00
      43   00:C389  00 00 00 00 00 00 00 00 
      44   00:C391                          ; 0-Personaje 0
      45   00:C391                          db #03,#07,#04,#04,#07,#07,#03,#FC
      45   00:C391  03 07 04 04 07 07 03 FC 
      46   00:C399                          db #9B,#9C,#97,#F6,#04,#04,#07,#05
      46   00:C399  9B 9C 97 F6 04 04 07 05 
      47   00:C3A1                          db #C0,#C0,#80,#80,#C0,#C0,#00,#80
      47   00:C3A1  C0 C0 80 80 C0 C0 00 80 
      48   00:C3A9                          db #C0,#70,#F0,#80,#00,#80,#60,#20
      48   00:C3A9  C0 70 F0 80 00 80 60 20 
      49   00:C3B1                          ; 1-Personaje 1
      50   00:C3B1                          db #03,#07,#04,#04,#07,#07,#03,#FC
      50   00:C3B1  03 07 04 04 07 07 03 FC 
      51   00:C3B9                          db #9B,#9C,#97,#F6,#00,#09,#18,#12
      51   00:C3B9  9B 9C 97 F6 00 09 18 12 
      52   00:C3C1                          db #C0,#C0,#80,#80,#C0,#C0,#00,#80
      52   00:C3C1  C0 C0 80 80 C0 C0 00 80 
      53   00:C3C9                          db #C0,#70,#F0,#80,#40,#20,#98,#48
      53   00:C3C9  C0 70 F0 80 40 20 98 48 
      54   00:C3D1                          ; 2-Personaje 2
      55   00:C3D1                          db #03,#03,#01,#01,#03,#03,#00,#01
      55   00:C3D1  03 03 01 01 03 03 00 01 
      56   00:C3D9                          db #03,#0E,#0F,#01,#00,#01,#06,#04
      56   00:C3D9  03 0E 0F 01 00 01 06 04 
      57   00:C3E1                          db #C0,#E0,#20,#20,#E0,#E0,#C0,#3F
      57   00:C3E1  C0 E0 20 20 E0 E0 C0 3F 
      58   00:C3E9                          db #D9,#39,#E9,#6F,#20,#20,#E0,#A0
      58   00:C3E9  D9 39 E9 6F 20 20 E0 A0 
      59   00:C3F1                          ; 3-Personaje 3
      60   00:C3F1                          db #03,#03,#01,#01,#03,#03,#00,#01
      60   00:C3F1  03 03 01 01 03 03 00 01 
      61   00:C3F9                          db #03,#0E,#0F,#01,#02,#04,#19,#12
      61   00:C3F9  03 0E 0F 01 02 04 19 12 
      62   00:C401                          db #C0,#E0,#20,#20,#E0,#E0,#C0,#3F
      62   00:C401  C0 E0 20 20 E0 E0 C0 3F 
      63   00:C409                          db #D9,#39,#E9,#6F,#00,#90,#18,#48
      63   00:C409  D9 39 E9 6F 00 90 18 48 
      64   00:C411                          ; 4-Personaje 4
      65   00:C411                          db #01,#03,#02,#02,#03,#03,#00,#02
      65   00:C411  01 03 02 02 03 03 00 02 
      66   00:C419                          db #06,#06,#07,#01,#01,#01,#04,#04
      66   00:C419  06 06 07 01 01 01 04 04 
      67   00:C421                          db #C0,#E0,#20,#20,#E0,#E0,#C0,#10
      67   00:C421  C0 E0 20 20 E0 E0 C0 10 
      68   00:C429                          db #18,#18,#F8,#E8,#20,#20,#C8,#C8
      68   00:C429  18 18 F8 E8 20 20 C8 C8 
      69   00:C431                          ; 5-Personaje 5
      70   00:C431                          db #00,#01,#01,#01,#01,#01,#00,#02
      70   00:C431  00 01 01 01 01 01 00 02 
      71   00:C439                          db #06,#06,#07,#05,#03,#07,#07,#00
      71   00:C439  06 06 07 05 03 07 07 00 
      72   00:C441                          db #E0,#F0,#10,#10,#F0,#F0,#60,#10
      72   00:C441  E0 F0 10 10 F0 F0 60 10 
      73   00:C449                          db #18,#18,#F8,#E0,#20,#A0,#70,#70
      73   00:C449  18 18 F8 E0 20 A0 70 70 
      74   00:C451                          ; 6-Personaje 6
      75   00:C451                          db #01,#03,#03,#03,#03,#03,#00,#02
      75   00:C451  01 03 03 03 03 03 00 02 
      76   00:C459                          db #06,#06,#07,#01,#01,#01,#01,#03
      76   00:C459  06 06 07 01 01 01 01 03 
      77   00:C461                          db #C0,#E0,#E0,#E0,#E0,#E0,#C0,#10
      77   00:C461  C0 E0 E0 E0 E0 E0 C0 10 
      78   00:C469                          db #18,#18,#F8,#E8,#20,#20,#E0,#F0
      78   00:C469  18 18 F8 E8 20 20 E0 F0 
      79   00:C471                          ; 7-Personaje 7
      80   00:C471                          db #00,#01,#01,#01,#01,#01,#00,#02
      80   00:C471  00 01 01 01 01 01 00 02 
      81   00:C479                          db #06,#06,#07,#05,#01,#03,#07,#00
      81   00:C479  06 06 07 05 01 03 07 00 
      82   00:C481                          db #E0,#F0,#F0,#F0,#F0,#F0,#60,#10
      82   00:C481  E0 F0 F0 F0 F0 F0 60 10 
      83   00:C489                          db #18,#18,#F8,#E0,#20,#20,#60,#60
      83   00:C489  18 18 F8 E0 20 20 60 60 
      84   00:C491                      
      85   00:C491                      
      86   00:C491                          ; 8-Pajara 0
      87   00:C491                          db #00,#00,#00,#00,#C0,#30,#1C,#FC
      87   00:C491  00 00 00 00 C0 30 1C FC 
      88   00:C499                          db #FF,#1F,#2F,#5F,#7E,#FC,#F8,#E0
      88   00:C499  FF 1F 2F 5F 7E FC F8 E0 
      89   00:C4A1                          db #00,#00,#00,#00,#00,#70,#F8,#80
      89   00:C4A1  00 00 00 00 00 70 F8 80 
      90   00:C4A9                          db #80,#00,#00,#00,#00,#00,#00,#00
      90   00:C4A9  80 00 00 00 00 00 00 00 
      91   00:C4B1                          ; 9-Pajaro 1-plano 2 de pajaro 0
      92   00:C4B1                          db #00,#00,#00,#00,#00,#00,#00,#00
      92   00:C4B1  00 00 00 00 00 00 00 00 
      93   00:C4B9                          db #FF,#1F,#FF,#FF,#00,#00,#00,#00
      93   00:C4B9  FF 1F FF FF 00 00 00 00 
      94   00:C4C1                          db #00,#00,#00,#00,#00,#70,#F8,#80
      94   00:C4C1  00 00 00 00 00 70 F8 80 
      95   00:C4C9                          db #80,#00,#00,#00,#00,#00,#00,#00
      95   00:C4C9  80 00 00 00 00 00 00 00 
      96   00:C4D1                      
      97   00:C4D1                          ; 10-Pajara 2
      98   00:C4D1                          db #00,#00,#01,#01,#41,#73,#7B,#3F
      98   00:C4D1  00 00 01 01 41 73 7B 3F 
      99   00:C4D9                          db #3F,#7F,#FF,#7F,#F8,#00,#00,#00
      99   00:C4D9  3F 7F FF 7F F8 00 00 00 
     100   00:C4E1                          db #00,#00,#80,#80,#C0,#C0,#C0,#C0
     100   00:C4E1  00 00 80 80 C0 C0 C0 C0 
     101   00:C4E9                          db #F8,#BC,#8C,#00,#00,#00,#00,#00
     101   00:C4E9  F8 BC 8C 00 00 00 00 00 
     102   00:C4F1                          ; 11-plano 2 de pajaro 2
     103   00:C4F1                          db #00,#00,#00,#00,#00,#00,#00,#00
     103   00:C4F1  00 00 00 00 00 00 00 00 
     104   00:C4F9                          db #00,#7F,#FF,#0F,#1F,#00,#00,#00
     104   00:C4F9  00 7F FF 0F 1F 00 00 00 
     105   00:C501                          db #00,#00,#00,#00,#00,#00,#00,#00
     105   00:C501  00 00 00 00 00 00 00 00 
     106   00:C509                          db #00,#BC,#EC,#B8,#98,#00,#00,#00
     106   00:C509  00 BC EC B8 98 00 00 00 
     107   00:C511                      
     108   00:C511                          ; 12-Pajara 3
     109   00:C511                          db #04,#04,#06,#03,#03,#01,#E1,#3F
     109   00:C511  04 04 06 03 03 01 E1 3F 
     110   00:C519                          db #3F,#E1,#01,#03,#03,#06,#04,#04
     110   00:C519  3F E1 01 03 03 06 04 04 
     111   00:C521                          db #00,#00,#00,#00,#80,#80,#C0,#F0
     111   00:C521  00 00 00 00 80 80 C0 F0 
     112   00:C529                          db #F0,#C0,#80,#80,#00,#00,#00,#00
     112   00:C529  F0 C0 80 80 00 00 00 00 
     113   00:C531                          ; 13-Plano 2 de pákaro 3
     114   00:C531                          db #00,#00,#00,#00,#0F,#7F,#E1,#3F
     114   00:C531  00 00 00 00 0F 7F E1 3F 
     115   00:C539                          db #3F,#E1,#7F,#0F,#00,#00,#00,#00
     115   00:C539  3F E1 7F 0F 00 00 00 00 
     116   00:C541                          db #00,#00,#00,#00,#00,#80,#C0,#F0
     116   00:C541  00 00 00 00 00 80 C0 F0 
     117   00:C549                          db #F0,#C0,#80,#00,#00,#00,#00,#00
     117   00:C549  F0 C0 80 00 00 00 00 00 
     118   00:C551                      
     119   00:C551                          ; 14- pájaro 4
     120   00:C551                          db #00,#00,#00,#00,#00,#1C,#1C,#1C
     120   00:C551  00 00 00 00 00 1C 1C 1C 
     121   00:C559                          db #07,#0F,#0C,#18,#01,#01,#00,#00
     121   00:C559  07 0F 0C 18 01 01 00 00 
     122   00:C561                          db #00,#00,#00,#00,#0C,#1C,#10,#10
     122   00:C561  00 00 00 00 0C 1C 10 10 
     123   00:C569                          db #F0,#E0,#E0,#C0,#80,#80,#00,#00
     123   00:C569  F0 E0 E0 C0 80 80 00 00 
     124   00:C571                          ; 15- plano 2 de pájaro 4
     125   00:C571                          db #00,#00,#00,#00,#01,#1D,#1C,#1F
     125   00:C571  00 00 00 00 01 1D 1C 1F 
     126   00:C579                          db #07,#0F,#0C,#18,#00,#00,#00,#00
     126   00:C579  07 0F 0C 18 00 00 00 00 
     127   00:C581                          db #00,#00,#00,#00,#CC,#DC,#F0,#F0
     127   00:C581  00 00 00 00 CC DC F0 F0 
     128   00:C589                          db #F0,#E0,#00,#00,#00,#00,#00,#00
     128   00:C589  F0 E0 00 00 00 00 00 00 
     129   00:C591                      
     130   00:C591                          ; 16- pajaro 5
     131   00:C591                          db #00,#00,#00,#00,#07,#23,#33,#1F
     131   00:C591  00 00 00 00 07 23 33 1F 
     132   00:C599                          db #1F,#33,#23,#07,#00,#00,#00,#00
     132   00:C599  1F 33 23 07 00 00 00 00 
     133   00:C5A1                          db #00,#00,#00,#00,#00,#80,#80,#E0
     133   00:C5A1  00 00 00 00 00 80 80 E0 
     134   00:C5A9                          db #E0,#C0,#80,#00,#00,#00,#00,#00
     134   00:C5A9  E0 C0 80 00 00 00 00 00 
     135   00:C5B1                          ; 17-Plano 2 de pájaro 5
     136   00:C5B1                          db #00,#00,#00,#00,#00,#20,#37,#1F
     136   00:C5B1  00 00 00 00 00 20 37 1F 
     137   00:C5B9                          db #1F,#37,#20,#00,#00,#00,#00,#00
     137   00:C5B9  1F 37 20 00 00 00 00 00 
     138   00:C5C1                          db #00,#00,#00,#00,#00,#00,#C0,#E0
     138   00:C5C1  00 00 00 00 00 00 C0 E0 
     139   00:C5C9                          db #E0,#C0,#00,#00,#00,#00,#00,#00
     139   00:C5C9  E0 C0 00 00 00 00 00 00 
     140   00:C5D1                      
     141   00:C5D1                          ; 18- pajaro 6
     142   00:C5D1                          db #02,#03,#01,#00,#00,#00,#00,#7F
     142   00:C5D1  02 03 01 00 00 00 00 7F 
     143   00:C5D9                          db #1F,#00,#00,#00,#00,#01,#03,#02
     143   00:C5D9  1F 00 00 00 00 01 03 02 
     144   00:C5E1                          db #00,#80,#C0,#C0,#C0,#E0,#E0,#F8
     144   00:C5E1  00 80 C0 C0 C0 E0 E0 F8 
     145   00:C5E9                          db #F0,#E0,#E0,#C0,#C0,#C0,#00,#00
     145   00:C5E9  F0 E0 E0 C0 C0 C0 00 00 
     146   00:C5F1                          ; 19- plano 2 de pajaro 6
     147   00:C5F1                          db #00,#00,#00,#00,#00,#03,#0F,#7F
     147   00:C5F1  00 00 00 00 00 03 0F 7F 
     148   00:C5F9                          db #1F,#0F,#03,#00,#00,#00,#00,#00
     148   00:C5F9  1F 0F 03 00 00 00 00 00 
     149   00:C601                          db #00,#00,#00,#00,#00,#C0,#E0,#F8
     149   00:C601  00 00 00 00 00 C0 E0 F8 
     150   00:C609                          db #F0,#E0,#C0,#00,#00,#00,#00,#00
     150   00:C609  F0 E0 C0 00 00 00 00 00 
     151   00:C611                      
     152   00:C611                          ; 20- pájaro 7
     153   00:C611                          db #00,#00,#00,#01,#01,#79,#7D,#07
     153   00:C611  00 00 00 01 01 79 7D 07 
     154   00:C619                          db #7D,#7D,#00,#00,#00,#00,#00,#00
     154   00:C619  7D 7D 00 00 00 00 00 00 
     155   00:C621                          db #00,#38,#FC,#F8,#F0,#C0,#87,#FE
     155   00:C621  00 38 FC F8 F0 C0 87 FE 
     156   00:C629                          db #FE,#C7,#F8,#7C,#3C,#00,#00,#00
     156   00:C629  FE C7 F8 7C 3C 00 00 00 
     157   00:C631                          ; 21- plano 2 de pajaro 7
     158   00:C631                          db #00,#00,#00,#00,#00,#79,#7D,#07
     158   00:C631  00 00 00 00 00 79 7D 07 
     159   00:C639                          db #7D,#7D,#00,#00,#00,#00,#00,#00
     159   00:C639  7D 7D 00 00 00 00 00 00 
     160   00:C641                          db #00,#00,#00,#00,#00,#C0,#87,#FE
     160   00:C641  00 00 00 00 00 C0 87 FE 
     161   00:C649                          db #FE,#F7,#F8,#3C,#00,#00,#00,#00
     161   00:C649  FE F7 F8 3C 00 00 00 00 
     162   00:C651                      
     163   00:C651                          ; 22- pájaro 8
     164   00:C651                          db #00,#00,#00,#00,#00,#01,#03,#3B
     164   00:C651  00 00 00 00 00 01 03 3B 
     165   00:C659                          db #3F,#03,#03,#01,#01,#00,#00,#00
     165   00:C659  3F 03 03 01 01 00 00 00 
     166   00:C661                          db #00,#1F,#7F,#FF,#FC,#F0,#C7,#FF
     166   00:C661  00 1F 7F FF FC F0 C7 FF 
     167   00:C669                          db #FC,#CF,#C0,#C0,#E0,#F8,#7C,#3E
     167   00:C669  FC CF C0 C0 E0 F8 7C 3E 
     168   00:C671                          ; 23- plano 2 de pájaro 8
     169   00:C671                          db #00,#00,#00,#00,#00,#00,#03,#3B
     169   00:C671  00 00 00 00 00 00 03 3B 
     170   00:C679                          db #3F,#03,#03,#01,#01,#00,#00,#00
     170   00:C679  3F 03 03 01 01 00 00 00 
     171   00:C681                          db #00,#00,#00,#00,#00,#00,#C7,#FF
     171   00:C681  00 00 00 00 00 00 C7 FF 
     172   00:C689                          db #FC,#CF,#F0,#DE,#E7,#FA,#7C,#3E
     172   00:C689  FC CF F0 DE E7 FA 7C 3E 
     173   00:C691                      
     174   00:C691                      
     175   00:C691                      
     176   00:C691                          ; 24-
     177   00:C691                          db #01,#01,#01,#01,#01,#01,#01,#01
     177   00:C691  01 01 01 01 01 01 01 01 
     178   00:C699                          db #01,#01,#01,#01,#03,#0F,#3F,#FF
     178   00:C699  01 01 01 01 03 0F 3F FF 
     179   00:C6A1                          db #00,#00,#00,#00,#00,#00,#00,#00
     179   00:C6A1  00 00 00 00 00 00 00 00 
     180   00:C6A9                          db #00,#00,#00,#00,#80,#F0,#FC,#FF
     180   00:C6A9  00 00 00 00 80 F0 FC FF 
     181   00:C6B1                          ; 25-
     182   00:C6B1                          db #C0,#C0,#00,#00,#00,#00,#00,#00
     182   00:C6B1  C0 C0 00 00 00 00 00 00 
     183   00:C6B9                          db #00,#00,#00,#00,#00,#00,#00,#00
     183   00:C6B9  00 00 00 00 00 00 00 00 
     184   00:C6C1                          db #00,#00,#00,#00,#00,#00,#00,#00
     184   00:C6C1  00 00 00 00 00 00 00 00 
     185   00:C6C9                          db #00,#00,#00,#00,#00,#00,#00,#00
     185   00:C6C9  00 00 00 00 00 00 00 00 
     186   00:C6D1                          ; 26-
     187   00:C6D1                          db #40,#40,#40,#40,#40,#40,#40,#E0
     187   00:C6D1  40 40 40 40 40 40 40 E0 
     188   00:C6D9                          db #E0,#40,#00,#00,#00,#00,#00,#00
     188   00:C6D9  E0 40 00 00 00 00 00 00 
     189   00:C6E1                          db #00,#00,#00,#00,#00,#00,#00,#00
     189   00:C6E1  00 00 00 00 00 00 00 00 
     190   00:C6E9                          db #00,#00,#00,#00,#00,#00,#00,#00
     190   00:C6E9  00 00 00 00 00 00 00 00 
     191   00:C6F1                          ; 27-
     192   00:C6F1                          db #F8,#50,#00,#00,#00,#00,#00,#00
     192   00:C6F1  F8 50 00 00 00 00 00 00 
     193   00:C6F9                          db #00,#00,#00,#00,#00,#00,#00,#00
     193   00:C6F9  00 00 00 00 00 00 00 00 
     194   00:C701                          db #00,#00,#00,#00,#00,#00,#00,#00
     194   00:C701  00 00 00 00 00 00 00 00 
     195   00:C709                          db #00,#00,#00,#00,#00,#00,#00,#00
     195   00:C709  00 00 00 00 00 00 00 00 
     196   00:C711                      
     197   00:C711                      
     198   00:C711                      
     199   00:C711                      color_sprites:
     200   00:C711                          ;incbin "./src/CLRSPR.BIN"
     201   00:C711                          ; 0-vacío
     202   00:C711                          db #0F,#0F,#07,#07,#0F,#0F,#0F,#08
     202   00:C711  0F 0F 07 07 0F 0F 0F 08 
     203   00:C719                          db #08,#08,#08,#08,#08,#08,#0F,#0F
     203   00:C719  08 08 08 08 08 08 0F 0F 
     204   00:C721                          ; 0-Personaje 0
     205   00:C721                          db #0F,#0F,#07,#07,#0F,#0F,#0F,#08
     205   00:C721  0F 0F 07 07 0F 0F 0F 08 
     206   00:C729                          db #08,#08,#08,#08,#08,#08,#0F,#0F 
     206   00:C729  08 08 08 08 08 08 0F 0F 
     207   00:C731                          ; 1-Personaje 1
     208   00:C731                          db #0F,#0F,#47,#47,#0F,#0F,#0F,#48
     208   00:C731  0F 0F 47 47 0F 0F 0F 48 
     209   00:C739                          db #48,#48,#48,#48,#48,#48,#0F,#0F
     209   00:C739  48 48 48 48 48 48 0F 0F 
     210   00:C741                          ; 2-Personaje 2
     211   00:C741                          db #0F,#0F,#0F,#0F,#0F,#0F,#08,#08
     211   00:C741  0F 0F 0F 0F 0F 0F 08 08 
     212   00:C749                          db #08,#08,#08,#08,#08,#08,#0F,#0F
     212   00:C749  08 08 08 08 08 08 0F 0F 
     213   00:C751                          ; 3-Personaje 3
     214   00:C751                          db #0F,#0F,#07,#07,#0F,#0F,#08,#08
     214   00:C751  0F 0F 07 07 0F 0F 08 08 
     215   00:C759                          db #08,#08,#08,#08,#08,#08,#0F,#0F
     215   00:C759  08 08 08 08 08 08 0F 0F 
     216   00:C761                          ; 4-Personaje 4
     217   00:C761                          db #0F,#07,#07,#07,#0F,#0F,#0F,#08
     217   00:C761  0F 07 07 07 0F 0F 0F 08 
     218   00:C769                          db #08,#08,#08,#08,#08,#08,#0F,#0F
     218   00:C769  08 08 08 08 08 08 0F 0F 
     219   00:C771                          ; 5-Personaje 5
     220   00:C771                          db #0F,#07,#07,#07,#07,#0F,#0F,#08
     220   00:C771  0F 07 07 07 07 0F 0F 08 
     221   00:C779                          db #08,#08,#08,#08,#08,#08,#0F,#0F
     221   00:C779  08 08 08 08 08 08 0F 0F 
     222   00:C781                          ; 6-Personaje 6
     223   00:C781                          db #0F,#0F,#0F,#0F,#0F,#0F,#08,#08
     223   00:C781  0F 0F 0F 0F 0F 0F 08 08 
     224   00:C789                          db #08,#08,#08,#08,#08,#08,#0F,#0F
     224   00:C789  08 08 08 08 08 08 0F 0F 
     225   00:C791                          ; 7-Personaje 7
     226   00:C791                          db #0F,#0F,#0F,#0F,#0F,#0F,#08,#08
     226   00:C791  0F 0F 0F 0F 0F 0F 08 08 
     227   00:C799                          db #08,#08,#08,#08,#08,#08,#0F,#0F
     227   00:C799  08 08 08 08 08 08 0F 0F 
     228   00:C7A1                      
     229   00:C7A1                          ; 8-pájaro 1
     230   00:C7A1                          db #0F,#0F,#0F,#0F,#02,#02,#02,#07
     230   00:C7A1  0F 0F 0F 0F 02 02 02 07 
     231   00:C7A9                          db #07,#07,#02,#02,#02,#02,#02,#02
     231   00:C7A9  07 07 02 02 02 02 02 02 
     232   00:C7B1                          ; 9-plano 2 pájaro 1
     233   00:C7B1                          db #0F,#0F,#0F,#0F,#02,#02,#02,#07
     233   00:C7B1  0F 0F 0F 0F 02 02 02 07 
     234   00:C7B9                          db #07,#07,#02,#02,#02,#02,#02,#02
     234   00:C7B9  07 07 02 02 02 02 02 02 
     235   00:C7C1                          ; 10-pájaro 2
     236   00:C7C1                          db #0F,#09,#09,#09,#09,#09,#09,#09
     236   00:C7C1  0F 09 09 09 09 09 09 09 
     237   00:C7C9                          db #09,#0A,#0A,#09,#09,#0F,#0F,#0F
     237   00:C7C9  09 0A 0A 09 09 0F 0F 0F 
     238   00:C7D1                          ; 11-plano 2
     239   00:C7D1                          db #0F,#09,#09,#09,#09,#09,#09,#09
     239   00:C7D1  0F 09 09 09 09 09 09 09 
     240   00:C7D9                          db #09,#0A,#0A,#09,#09,#0F,#0F,#0F
     240   00:C7D9  09 0A 0A 09 09 0F 0F 0F 
     241   00:C7E1                          ; 12-pájaro 3
     242   00:C7E1                          db #0E,#0E,#0E,#0E,#0E,#0E,#07,#07
     242   00:C7E1  0E 0E 0E 0E 0E 0E 07 07 
     243   00:C7E9                          db #07,#07,#0E,#0E,#0E,#0E,#0E,#0E
     243   00:C7E9  07 07 0E 0E 0E 0E 0E 0E 
     244   00:C7F1                          ; 13-plano 2
     245   00:C7F1                          db #0E,#0E,#0E,#0E,#0E,#0E,#07,#07
     245   00:C7F1  0E 0E 0E 0E 0E 0E 07 07 
     246   00:C7F9                          db #07,#07,#0E,#0E,#0E,#0E,#0E,#0E
     246   00:C7F9  07 07 0E 0E 0E 0E 0E 0E 
     247   00:C801                          ; 14-pájaro 4
     248   00:C801                          db #0F,#0F,#0F,#0F,#08,#08,#08,#08
     248   00:C801  0F 0F 0F 0F 08 08 08 08 
     249   00:C809                          db #09,#09,#08,#08,#08,#08,#0F,#0F
     249   00:C809  09 09 08 08 08 08 0F 0F 
     250   00:C811                          ; 15-plano 2
     251   00:C811                          db #0F,#0F,#0F,#0F,#08,#08,#08,#08
     251   00:C811  0F 0F 0F 0F 08 08 08 08 
     252   00:C819                          db #09,#09,#08,#08,#08,#08,#0F,#0F
     252   00:C819  09 09 08 08 08 08 0F 0F 
     253   00:C821                          ; 16-pájaro 5
     254   00:C821                          db #0F,#0F,#0F,#0F,#03,#02,#02,#04
     254   00:C821  0F 0F 0F 0F 03 02 02 04 
     255   00:C829                          db #04,#02,#02,#02,#0F,#0F,#0F,#0F
     255   00:C829  04 02 02 02 0F 0F 0F 0F 
     256   00:C831                          ; 17-plano 2
     257   00:C831                          db #0F,#0F,#0F,#0F,#03,#02,#02,#04
     257   00:C831  0F 0F 0F 0F 03 02 02 04 
     258   00:C839                          db #04,#02,#02,#02,#0F,#0F,#0F,#0F
     258   00:C839  04 02 02 02 0F 0F 0F 0F 
     259   00:C841                          ; 18-pájaro 6
     260   00:C841                          db #0E,#0E,#0E,#0E,#0E,#0E,#0E,#0D
     260   00:C841  0E 0E 0E 0E 0E 0E 0E 0D 
     261   00:C849                          db #0D,#0E,#0E,#0E,#0E,#0E,#0E,#0E
     261   00:C849  0D 0E 0E 0E 0E 0E 0E 0E 
     262   00:C851                          ; 19-plano 2
     263   00:C851                          db #0E,#0E,#0E,#0E,#0E,#0E,#0E,#0D
     263   00:C851  0E 0E 0E 0E 0E 0E 0E 0D 
     264   00:C859                          db #0D,#0E,#0E,#0E,#0E,#0E,#0E,#0E
     264   00:C859  0D 0E 0E 0E 0E 0E 0E 0E 
     265   00:C861                          ; 20-pájaro 7
     266   00:C861                          db #0F,#0A,#0A,#0A,#0A,#0C,#0C,#0C
     266   00:C861  0F 0A 0A 0A 0A 0C 0C 0C 
     267   00:C869                          db #0C,#0C,#0B,#0B,#0A,#0F,#0F,#0F
     267   00:C869  0C 0C 0B 0B 0A 0F 0F 0F 
     268   00:C871                          ; 21-plano 2
     269   00:C871                          db #0F,#0A,#0A,#0A,#0A,#0C,#0C,#0C
     269   00:C871  0F 0A 0A 0A 0A 0C 0C 0C 
     270   00:C879                          db #0C,#0C,#0B,#0B,#0A,#0F,#0F,#0F
     270   00:C879  0C 0C 0B 0B 0A 0F 0F 0F 
     271   00:C881                          ; 22-pájaro 8
     272   00:C881                          db #0F,#0A,#0A,#0A,#0A,#0A,#09,#09
     272   00:C881  0F 0A 0A 0A 0A 0A 09 09 
     273   00:C889                          db #09,#09,#0A,#0A,#0A,#0A,#0A,#0A
     273   00:C889  09 09 0A 0A 0A 0A 0A 0A 
     274   00:C891                          ; 23-plano 2
     275   00:C891                          db #0F,#0A,#0A,#0A,#0A,#0A,#09,#09
     275   00:C891  0F 0A 0A 0A 0A 0A 09 09 
     276   00:C899                          db #09,#09,#0A,#0A,#0A,#0A,#0A,#0A
     276   00:C899  09 09 0A 0A 0A 0A 0A 0A 
     277   00:C8A1                      
     278   00:C8A1                          ; 24-
     279   00:C8A1                          db #0B,#0B,#0B,#0B,#0B,#0B,#0B,#0B
     279   00:C8A1  0B 0B 0B 0B 0B 0B 0B 0B 
     280   00:C8A9                          db #0B,#0B,#0B,#0B,#0B,#0B,#0A,#09
     280   00:C8A9  0B 0B 0B 0B 0B 0B 0A 09 
     281   00:C8B1                          ; 25-
     282   00:C8B1                          db #09,#09,#0F,#0F,#0F,#0F,#0F,#0F
     282   00:C8B1  09 09 0F 0F 0F 0F 0F 0F 
     283   00:C8B9                          db #0F,#0F,#0F,#0F,#0F,#0F,#0F,#0F
     283   00:C8B9  0F 0F 0F 0F 0F 0F 0F 0F 
     284   00:C8C1                          ; 26-
     285   00:C8C1                          db #09,#09,#09,#09,#09,#09,#09,#08
     285   00:C8C1  09 09 09 09 09 09 09 08 
     286   00:C8C9                          db #08,#08,#0F,#0F,#0F,#0F,#0F,#0F
     286   00:C8C9  08 08 0F 0F 0F 0F 0F 0F 
     287   00:C8D1                          ; 27-
     288   00:C8D1                          db #09,#09,#0F,#0F,#0F,#0F,#0F,#0F
     288   00:C8D1  09 09 0F 0F 0F 0F 0F 0F 
     289   00:C8D9                          db #0F,#0F,#0F,#0F,#0F,#0F,#0F,#0F
     289   00:C8D9  0F 0F 0F 0F 0F 0F 0F 0F 
     290   00:C8E1                      
     291   00:C8E1                      
     292   00:C8E1                      FINAL:

    LABELS
-------------------------------------------------
00:0000005F X CHGMOD
00:0000005C   LDIRVM
00:000000D5 X GTSTCK
00:0000C350   INICIO
00:0000C357   volcar_sprites_de_disco_a_vram
00:0000C364   volcar_colores_sprites_de_disco_a_vram
00:0000C371   sprites
00:0000C711   color_sprites
00:0000C8E1   FINAL


 Output: src/rutinas.out
-------------------------------------------------

 Page: 00
  Org: 0000C350  Size: *  Used: 00000000

    No output

 Output: rutinas.bin
-------------------------------------------------

 Page: 00
  Org: 0000C350  Size: *  Used: 00000598

   Address   Length Align   Label
   0000C350    1432         INICIO
